ARM GAS  C:\Users\zazz0\AppData\Local\Temp\ccasLcNg.s 			page 1


   1              		.syntax unified
   2              		.cpu cortex-m4
   3              		.eabi_attribute 27, 1
   4              		.eabi_attribute 28, 1
   5              		.fpu fpv4-sp-d16
   6              		.eabi_attribute 20, 1
   7              		.eabi_attribute 21, 1
   8              		.eabi_attribute 23, 3
   9              		.eabi_attribute 24, 1
  10              		.eabi_attribute 25, 1
  11              		.eabi_attribute 26, 1
  12              		.eabi_attribute 30, 1
  13              		.eabi_attribute 34, 1
  14              		.eabi_attribute 18, 4
  15              		.thumb
  16              		.syntax unified
  17              		.file	"stm32f4xx_hal_msp.c"
  18              		.text
  19              	.Ltext0:
  20              		.cfi_sections	.debug_frame
  21              		.section	.text.HAL_MspInit,"ax",%progbits
  22              		.align	2
  23              		.global	HAL_MspInit
  24              		.thumb
  25              		.thumb_func
  27              	HAL_MspInit:
  28              	.LFB235:
  29              		.file 1 "Core/Src/stm32f4xx_hal_msp.c"
   1:Core/Src/stm32f4xx_hal_msp.c **** /* USER CODE BEGIN Header */
   2:Core/Src/stm32f4xx_hal_msp.c **** /**
   3:Core/Src/stm32f4xx_hal_msp.c ****   ******************************************************************************
   4:Core/Src/stm32f4xx_hal_msp.c ****   * @file         stm32f4xx_hal_msp.c
   5:Core/Src/stm32f4xx_hal_msp.c ****   * @brief        This file provides code for the MSP Initialization
   6:Core/Src/stm32f4xx_hal_msp.c ****   *               and de-Initialization codes.
   7:Core/Src/stm32f4xx_hal_msp.c ****   ******************************************************************************
   8:Core/Src/stm32f4xx_hal_msp.c ****   * @attention
   9:Core/Src/stm32f4xx_hal_msp.c ****   *
  10:Core/Src/stm32f4xx_hal_msp.c ****   * Copyright (c) 2022 STMicroelectronics.
  11:Core/Src/stm32f4xx_hal_msp.c ****   * All rights reserved.
  12:Core/Src/stm32f4xx_hal_msp.c ****   *
  13:Core/Src/stm32f4xx_hal_msp.c ****   * This software is licensed under terms that can be found in the LICENSE file
  14:Core/Src/stm32f4xx_hal_msp.c ****   * in the root directory of this software component.
  15:Core/Src/stm32f4xx_hal_msp.c ****   * If no LICENSE file comes with this software, it is provided AS-IS.
  16:Core/Src/stm32f4xx_hal_msp.c ****   *
  17:Core/Src/stm32f4xx_hal_msp.c ****   ******************************************************************************
  18:Core/Src/stm32f4xx_hal_msp.c ****   */
  19:Core/Src/stm32f4xx_hal_msp.c **** /* USER CODE END Header */
  20:Core/Src/stm32f4xx_hal_msp.c **** 
  21:Core/Src/stm32f4xx_hal_msp.c **** /* Includes ------------------------------------------------------------------*/
  22:Core/Src/stm32f4xx_hal_msp.c **** #include "main.h"
  23:Core/Src/stm32f4xx_hal_msp.c **** /* USER CODE BEGIN Includes */
  24:Core/Src/stm32f4xx_hal_msp.c **** 
  25:Core/Src/stm32f4xx_hal_msp.c **** /* USER CODE END Includes */
  26:Core/Src/stm32f4xx_hal_msp.c **** 
  27:Core/Src/stm32f4xx_hal_msp.c **** /* Private typedef -----------------------------------------------------------*/
  28:Core/Src/stm32f4xx_hal_msp.c **** /* USER CODE BEGIN TD */
  29:Core/Src/stm32f4xx_hal_msp.c **** 
ARM GAS  C:\Users\zazz0\AppData\Local\Temp\ccasLcNg.s 			page 2


  30:Core/Src/stm32f4xx_hal_msp.c **** /* USER CODE END TD */
  31:Core/Src/stm32f4xx_hal_msp.c **** 
  32:Core/Src/stm32f4xx_hal_msp.c **** /* Private define ------------------------------------------------------------*/
  33:Core/Src/stm32f4xx_hal_msp.c **** /* USER CODE BEGIN Define */
  34:Core/Src/stm32f4xx_hal_msp.c **** 
  35:Core/Src/stm32f4xx_hal_msp.c **** /* USER CODE END Define */
  36:Core/Src/stm32f4xx_hal_msp.c **** 
  37:Core/Src/stm32f4xx_hal_msp.c **** /* Private macro -------------------------------------------------------------*/
  38:Core/Src/stm32f4xx_hal_msp.c **** /* USER CODE BEGIN Macro */
  39:Core/Src/stm32f4xx_hal_msp.c **** 
  40:Core/Src/stm32f4xx_hal_msp.c **** /* USER CODE END Macro */
  41:Core/Src/stm32f4xx_hal_msp.c **** 
  42:Core/Src/stm32f4xx_hal_msp.c **** /* Private variables ---------------------------------------------------------*/
  43:Core/Src/stm32f4xx_hal_msp.c **** /* USER CODE BEGIN PV */
  44:Core/Src/stm32f4xx_hal_msp.c **** 
  45:Core/Src/stm32f4xx_hal_msp.c **** /* USER CODE END PV */
  46:Core/Src/stm32f4xx_hal_msp.c **** 
  47:Core/Src/stm32f4xx_hal_msp.c **** /* Private function prototypes -----------------------------------------------*/
  48:Core/Src/stm32f4xx_hal_msp.c **** /* USER CODE BEGIN PFP */
  49:Core/Src/stm32f4xx_hal_msp.c **** 
  50:Core/Src/stm32f4xx_hal_msp.c **** /* USER CODE END PFP */
  51:Core/Src/stm32f4xx_hal_msp.c **** 
  52:Core/Src/stm32f4xx_hal_msp.c **** /* External functions --------------------------------------------------------*/
  53:Core/Src/stm32f4xx_hal_msp.c **** /* USER CODE BEGIN ExternalFunctions */
  54:Core/Src/stm32f4xx_hal_msp.c **** 
  55:Core/Src/stm32f4xx_hal_msp.c **** /* USER CODE END ExternalFunctions */
  56:Core/Src/stm32f4xx_hal_msp.c **** 
  57:Core/Src/stm32f4xx_hal_msp.c **** /* USER CODE BEGIN 0 */
  58:Core/Src/stm32f4xx_hal_msp.c **** 
  59:Core/Src/stm32f4xx_hal_msp.c **** /* USER CODE END 0 */
  60:Core/Src/stm32f4xx_hal_msp.c **** /**
  61:Core/Src/stm32f4xx_hal_msp.c ****   * Initializes the Global MSP.
  62:Core/Src/stm32f4xx_hal_msp.c ****   */
  63:Core/Src/stm32f4xx_hal_msp.c **** void HAL_MspInit(void)
  64:Core/Src/stm32f4xx_hal_msp.c **** {
  30              		.loc 1 64 0
  31              		.cfi_startproc
  32              		@ args = 0, pretend = 0, frame = 8
  33              		@ frame_needed = 0, uses_anonymous_args = 0
  34              		@ link register save eliminated.
  35 0000 82B0     		sub	sp, sp, #8
  36              	.LCFI0:
  37              		.cfi_def_cfa_offset 8
  38              	.LBB2:
  65:Core/Src/stm32f4xx_hal_msp.c ****   /* USER CODE BEGIN MspInit 0 */
  66:Core/Src/stm32f4xx_hal_msp.c **** 
  67:Core/Src/stm32f4xx_hal_msp.c ****   /* USER CODE END MspInit 0 */
  68:Core/Src/stm32f4xx_hal_msp.c **** 
  69:Core/Src/stm32f4xx_hal_msp.c ****   __HAL_RCC_SYSCFG_CLK_ENABLE();
  39              		.loc 1 69 0
  40 0002 0021     		movs	r1, #0
  41 0004 0091     		str	r1, [sp]
  42 0006 0B4B     		ldr	r3, .L3
  43 0008 5A6C     		ldr	r2, [r3, #68]
  44 000a 42F48042 		orr	r2, r2, #16384
  45 000e 5A64     		str	r2, [r3, #68]
  46 0010 5A6C     		ldr	r2, [r3, #68]
ARM GAS  C:\Users\zazz0\AppData\Local\Temp\ccasLcNg.s 			page 3


  47 0012 02F48042 		and	r2, r2, #16384
  48 0016 0092     		str	r2, [sp]
  49 0018 009A     		ldr	r2, [sp]
  50              	.LBE2:
  51              	.LBB3:
  70:Core/Src/stm32f4xx_hal_msp.c ****   __HAL_RCC_PWR_CLK_ENABLE();
  52              		.loc 1 70 0
  53 001a 0191     		str	r1, [sp, #4]
  54 001c 1A6C     		ldr	r2, [r3, #64]
  55 001e 42F08052 		orr	r2, r2, #268435456
  56 0022 1A64     		str	r2, [r3, #64]
  57 0024 1B6C     		ldr	r3, [r3, #64]
  58 0026 03F08053 		and	r3, r3, #268435456
  59 002a 0193     		str	r3, [sp, #4]
  60 002c 019B     		ldr	r3, [sp, #4]
  61              	.LBE3:
  71:Core/Src/stm32f4xx_hal_msp.c **** 
  72:Core/Src/stm32f4xx_hal_msp.c ****   /* System interrupt init*/
  73:Core/Src/stm32f4xx_hal_msp.c **** 
  74:Core/Src/stm32f4xx_hal_msp.c ****   /* USER CODE BEGIN MspInit 1 */
  75:Core/Src/stm32f4xx_hal_msp.c **** 
  76:Core/Src/stm32f4xx_hal_msp.c ****   /* USER CODE END MspInit 1 */
  77:Core/Src/stm32f4xx_hal_msp.c **** }
  62              		.loc 1 77 0
  63 002e 02B0     		add	sp, sp, #8
  64              	.LCFI1:
  65              		.cfi_def_cfa_offset 0
  66              		@ sp needed
  67 0030 7047     		bx	lr
  68              	.L4:
  69 0032 00BF     		.align	2
  70              	.L3:
  71 0034 00380240 		.word	1073887232
  72              		.cfi_endproc
  73              	.LFE235:
  75              		.section	.text.HAL_ADC_MspInit,"ax",%progbits
  76              		.align	2
  77              		.global	HAL_ADC_MspInit
  78              		.thumb
  79              		.thumb_func
  81              	HAL_ADC_MspInit:
  82              	.LFB236:
  78:Core/Src/stm32f4xx_hal_msp.c **** 
  79:Core/Src/stm32f4xx_hal_msp.c **** /**
  80:Core/Src/stm32f4xx_hal_msp.c **** * @brief ADC MSP Initialization
  81:Core/Src/stm32f4xx_hal_msp.c **** * This function configures the hardware resources used in this example
  82:Core/Src/stm32f4xx_hal_msp.c **** * @param hadc: ADC handle pointer
  83:Core/Src/stm32f4xx_hal_msp.c **** * @retval None
  84:Core/Src/stm32f4xx_hal_msp.c **** */
  85:Core/Src/stm32f4xx_hal_msp.c **** void HAL_ADC_MspInit(ADC_HandleTypeDef* hadc)
  86:Core/Src/stm32f4xx_hal_msp.c **** {
  83              		.loc 1 86 0
  84              		.cfi_startproc
  85              		@ args = 0, pretend = 0, frame = 40
  86              		@ frame_needed = 0, uses_anonymous_args = 0
  87              	.LVL0:
  88 0000 30B5     		push	{r4, r5, lr}
ARM GAS  C:\Users\zazz0\AppData\Local\Temp\ccasLcNg.s 			page 4


  89              	.LCFI2:
  90              		.cfi_def_cfa_offset 12
  91              		.cfi_offset 4, -12
  92              		.cfi_offset 5, -8
  93              		.cfi_offset 14, -4
  94 0002 8BB0     		sub	sp, sp, #44
  95              	.LCFI3:
  96              		.cfi_def_cfa_offset 56
  87:Core/Src/stm32f4xx_hal_msp.c ****   GPIO_InitTypeDef GPIO_InitStruct = {0};
  97              		.loc 1 87 0
  98 0004 0023     		movs	r3, #0
  99 0006 0593     		str	r3, [sp, #20]
 100 0008 0693     		str	r3, [sp, #24]
 101 000a 0793     		str	r3, [sp, #28]
 102 000c 0893     		str	r3, [sp, #32]
 103 000e 0993     		str	r3, [sp, #36]
  88:Core/Src/stm32f4xx_hal_msp.c ****   if(hadc->Instance==ADC1)
 104              		.loc 1 88 0
 105 0010 0268     		ldr	r2, [r0]
 106 0012 03F18043 		add	r3, r3, #1073741824
 107 0016 03F59033 		add	r3, r3, #73728
 108 001a 9A42     		cmp	r2, r3
 109 001c 41D1     		bne	.L5
 110              	.LBB4:
  89:Core/Src/stm32f4xx_hal_msp.c ****   {
  90:Core/Src/stm32f4xx_hal_msp.c ****   /* USER CODE BEGIN ADC1_MspInit 0 */
  91:Core/Src/stm32f4xx_hal_msp.c **** 
  92:Core/Src/stm32f4xx_hal_msp.c ****   /* USER CODE END ADC1_MspInit 0 */
  93:Core/Src/stm32f4xx_hal_msp.c ****     /* Peripheral clock enable */
  94:Core/Src/stm32f4xx_hal_msp.c ****     __HAL_RCC_ADC1_CLK_ENABLE();
 111              		.loc 1 94 0
 112 001e 0024     		movs	r4, #0
 113 0020 0194     		str	r4, [sp, #4]
 114 0022 03F58C33 		add	r3, r3, #71680
 115 0026 5A6C     		ldr	r2, [r3, #68]
 116 0028 42F48072 		orr	r2, r2, #256
 117 002c 5A64     		str	r2, [r3, #68]
 118 002e 5A6C     		ldr	r2, [r3, #68]
 119 0030 02F48072 		and	r2, r2, #256
 120 0034 0192     		str	r2, [sp, #4]
 121 0036 019A     		ldr	r2, [sp, #4]
 122              	.LBE4:
 123              	.LBB5:
  95:Core/Src/stm32f4xx_hal_msp.c **** 
  96:Core/Src/stm32f4xx_hal_msp.c ****     __HAL_RCC_GPIOC_CLK_ENABLE();
 124              		.loc 1 96 0
 125 0038 0294     		str	r4, [sp, #8]
 126 003a 1A6B     		ldr	r2, [r3, #48]
 127 003c 42F00402 		orr	r2, r2, #4
 128 0040 1A63     		str	r2, [r3, #48]
 129 0042 1A6B     		ldr	r2, [r3, #48]
 130 0044 02F00402 		and	r2, r2, #4
 131 0048 0292     		str	r2, [sp, #8]
 132 004a 029A     		ldr	r2, [sp, #8]
 133              	.LBE5:
 134              	.LBB6:
  97:Core/Src/stm32f4xx_hal_msp.c ****     __HAL_RCC_GPIOA_CLK_ENABLE();
ARM GAS  C:\Users\zazz0\AppData\Local\Temp\ccasLcNg.s 			page 5


 135              		.loc 1 97 0
 136 004c 0394     		str	r4, [sp, #12]
 137 004e 1A6B     		ldr	r2, [r3, #48]
 138 0050 42F00102 		orr	r2, r2, #1
 139 0054 1A63     		str	r2, [r3, #48]
 140 0056 1A6B     		ldr	r2, [r3, #48]
 141 0058 02F00102 		and	r2, r2, #1
 142 005c 0392     		str	r2, [sp, #12]
 143 005e 039A     		ldr	r2, [sp, #12]
 144              	.LBE6:
 145              	.LBB7:
  98:Core/Src/stm32f4xx_hal_msp.c ****     __HAL_RCC_GPIOB_CLK_ENABLE();
 146              		.loc 1 98 0
 147 0060 0494     		str	r4, [sp, #16]
 148 0062 1A6B     		ldr	r2, [r3, #48]
 149 0064 42F00202 		orr	r2, r2, #2
 150 0068 1A63     		str	r2, [r3, #48]
 151 006a 1B6B     		ldr	r3, [r3, #48]
 152 006c 03F00203 		and	r3, r3, #2
 153 0070 0493     		str	r3, [sp, #16]
 154 0072 049B     		ldr	r3, [sp, #16]
 155              	.LBE7:
  99:Core/Src/stm32f4xx_hal_msp.c ****     /**ADC1 GPIO Configuration
 100:Core/Src/stm32f4xx_hal_msp.c ****     PC0     ------> ADC1_IN10
 101:Core/Src/stm32f4xx_hal_msp.c ****     PC1     ------> ADC1_IN11
 102:Core/Src/stm32f4xx_hal_msp.c ****     PC2     ------> ADC1_IN12
 103:Core/Src/stm32f4xx_hal_msp.c ****     PC3     ------> ADC1_IN13
 104:Core/Src/stm32f4xx_hal_msp.c ****     PA0-WKUP     ------> ADC1_IN0
 105:Core/Src/stm32f4xx_hal_msp.c ****     PA1     ------> ADC1_IN1
 106:Core/Src/stm32f4xx_hal_msp.c ****     PA2     ------> ADC1_IN2
 107:Core/Src/stm32f4xx_hal_msp.c ****     PA3     ------> ADC1_IN3
 108:Core/Src/stm32f4xx_hal_msp.c ****     PA4     ------> ADC1_IN4
 109:Core/Src/stm32f4xx_hal_msp.c ****     PA5     ------> ADC1_IN5
 110:Core/Src/stm32f4xx_hal_msp.c ****     PA6     ------> ADC1_IN6
 111:Core/Src/stm32f4xx_hal_msp.c ****     PA7     ------> ADC1_IN7
 112:Core/Src/stm32f4xx_hal_msp.c ****     PC4     ------> ADC1_IN14
 113:Core/Src/stm32f4xx_hal_msp.c ****     PC5     ------> ADC1_IN15
 114:Core/Src/stm32f4xx_hal_msp.c ****     PB0     ------> ADC1_IN8
 115:Core/Src/stm32f4xx_hal_msp.c ****     PB1     ------> ADC1_IN9
 116:Core/Src/stm32f4xx_hal_msp.c ****     */
 117:Core/Src/stm32f4xx_hal_msp.c ****     GPIO_InitStruct.Pin = GPIO_PIN_0|GPIO_PIN_1|GPIO_PIN_2|GPIO_PIN_3
 156              		.loc 1 117 0
 157 0074 3F23     		movs	r3, #63
 158 0076 0593     		str	r3, [sp, #20]
 118:Core/Src/stm32f4xx_hal_msp.c ****                           |GPIO_PIN_4|GPIO_PIN_5;
 119:Core/Src/stm32f4xx_hal_msp.c ****     GPIO_InitStruct.Mode = GPIO_MODE_ANALOG;
 159              		.loc 1 119 0
 160 0078 0325     		movs	r5, #3
 161 007a 0695     		str	r5, [sp, #24]
 120:Core/Src/stm32f4xx_hal_msp.c ****     GPIO_InitStruct.Pull = GPIO_NOPULL;
 121:Core/Src/stm32f4xx_hal_msp.c ****     HAL_GPIO_Init(GPIOC, &GPIO_InitStruct);
 162              		.loc 1 121 0
 163 007c 05A9     		add	r1, sp, #20
 164 007e 0A48     		ldr	r0, .L8
 165              	.LVL1:
 166 0080 FFF7FEFF 		bl	HAL_GPIO_Init
 167              	.LVL2:
ARM GAS  C:\Users\zazz0\AppData\Local\Temp\ccasLcNg.s 			page 6


 122:Core/Src/stm32f4xx_hal_msp.c **** 
 123:Core/Src/stm32f4xx_hal_msp.c ****     GPIO_InitStruct.Pin = GPIO_PIN_0|GPIO_PIN_1|GPIO_PIN_2|GPIO_PIN_3
 168              		.loc 1 123 0
 169 0084 FF23     		movs	r3, #255
 170 0086 0593     		str	r3, [sp, #20]
 124:Core/Src/stm32f4xx_hal_msp.c ****                           |GPIO_PIN_4|GPIO_PIN_5|GPIO_PIN_6|GPIO_PIN_7;
 125:Core/Src/stm32f4xx_hal_msp.c ****     GPIO_InitStruct.Mode = GPIO_MODE_ANALOG;
 171              		.loc 1 125 0
 172 0088 0695     		str	r5, [sp, #24]
 126:Core/Src/stm32f4xx_hal_msp.c ****     GPIO_InitStruct.Pull = GPIO_NOPULL;
 173              		.loc 1 126 0
 174 008a 0794     		str	r4, [sp, #28]
 127:Core/Src/stm32f4xx_hal_msp.c ****     HAL_GPIO_Init(GPIOA, &GPIO_InitStruct);
 175              		.loc 1 127 0
 176 008c 05A9     		add	r1, sp, #20
 177 008e 0748     		ldr	r0, .L8+4
 178 0090 FFF7FEFF 		bl	HAL_GPIO_Init
 179              	.LVL3:
 128:Core/Src/stm32f4xx_hal_msp.c **** 
 129:Core/Src/stm32f4xx_hal_msp.c ****     GPIO_InitStruct.Pin = GPIO_PIN_0|GPIO_PIN_1;
 180              		.loc 1 129 0
 181 0094 0595     		str	r5, [sp, #20]
 130:Core/Src/stm32f4xx_hal_msp.c ****     GPIO_InitStruct.Mode = GPIO_MODE_ANALOG;
 182              		.loc 1 130 0
 183 0096 0695     		str	r5, [sp, #24]
 131:Core/Src/stm32f4xx_hal_msp.c ****     GPIO_InitStruct.Pull = GPIO_NOPULL;
 184              		.loc 1 131 0
 185 0098 0794     		str	r4, [sp, #28]
 132:Core/Src/stm32f4xx_hal_msp.c ****     HAL_GPIO_Init(GPIOB, &GPIO_InitStruct);
 186              		.loc 1 132 0
 187 009a 05A9     		add	r1, sp, #20
 188 009c 0448     		ldr	r0, .L8+8
 189 009e FFF7FEFF 		bl	HAL_GPIO_Init
 190              	.LVL4:
 191              	.L5:
 133:Core/Src/stm32f4xx_hal_msp.c **** 
 134:Core/Src/stm32f4xx_hal_msp.c ****   /* USER CODE BEGIN ADC1_MspInit 1 */
 135:Core/Src/stm32f4xx_hal_msp.c **** 
 136:Core/Src/stm32f4xx_hal_msp.c ****   /* USER CODE END ADC1_MspInit 1 */
 137:Core/Src/stm32f4xx_hal_msp.c ****   }
 138:Core/Src/stm32f4xx_hal_msp.c **** 
 139:Core/Src/stm32f4xx_hal_msp.c **** }
 192              		.loc 1 139 0
 193 00a2 0BB0     		add	sp, sp, #44
 194              	.LCFI4:
 195              		.cfi_def_cfa_offset 12
 196              		@ sp needed
 197 00a4 30BD     		pop	{r4, r5, pc}
 198              	.L9:
 199 00a6 00BF     		.align	2
 200              	.L8:
 201 00a8 00080240 		.word	1073874944
 202 00ac 00000240 		.word	1073872896
 203 00b0 00040240 		.word	1073873920
 204              		.cfi_endproc
 205              	.LFE236:
 207              		.section	.text.HAL_ADC_MspDeInit,"ax",%progbits
ARM GAS  C:\Users\zazz0\AppData\Local\Temp\ccasLcNg.s 			page 7


 208              		.align	2
 209              		.global	HAL_ADC_MspDeInit
 210              		.thumb
 211              		.thumb_func
 213              	HAL_ADC_MspDeInit:
 214              	.LFB237:
 140:Core/Src/stm32f4xx_hal_msp.c **** 
 141:Core/Src/stm32f4xx_hal_msp.c **** /**
 142:Core/Src/stm32f4xx_hal_msp.c **** * @brief ADC MSP De-Initialization
 143:Core/Src/stm32f4xx_hal_msp.c **** * This function freeze the hardware resources used in this example
 144:Core/Src/stm32f4xx_hal_msp.c **** * @param hadc: ADC handle pointer
 145:Core/Src/stm32f4xx_hal_msp.c **** * @retval None
 146:Core/Src/stm32f4xx_hal_msp.c **** */
 147:Core/Src/stm32f4xx_hal_msp.c **** void HAL_ADC_MspDeInit(ADC_HandleTypeDef* hadc)
 148:Core/Src/stm32f4xx_hal_msp.c **** {
 215              		.loc 1 148 0
 216              		.cfi_startproc
 217              		@ args = 0, pretend = 0, frame = 0
 218              		@ frame_needed = 0, uses_anonymous_args = 0
 219              	.LVL5:
 220 0000 08B5     		push	{r3, lr}
 221              	.LCFI5:
 222              		.cfi_def_cfa_offset 8
 223              		.cfi_offset 3, -8
 224              		.cfi_offset 14, -4
 149:Core/Src/stm32f4xx_hal_msp.c ****   if(hadc->Instance==ADC1)
 225              		.loc 1 149 0
 226 0002 0268     		ldr	r2, [r0]
 227 0004 0A4B     		ldr	r3, .L13
 228 0006 9A42     		cmp	r2, r3
 229 0008 10D1     		bne	.L10
 150:Core/Src/stm32f4xx_hal_msp.c ****   {
 151:Core/Src/stm32f4xx_hal_msp.c ****   /* USER CODE BEGIN ADC1_MspDeInit 0 */
 152:Core/Src/stm32f4xx_hal_msp.c **** 
 153:Core/Src/stm32f4xx_hal_msp.c ****   /* USER CODE END ADC1_MspDeInit 0 */
 154:Core/Src/stm32f4xx_hal_msp.c ****     /* Peripheral clock disable */
 155:Core/Src/stm32f4xx_hal_msp.c ****     __HAL_RCC_ADC1_CLK_DISABLE();
 230              		.loc 1 155 0
 231 000a 0A4A     		ldr	r2, .L13+4
 232 000c 536C     		ldr	r3, [r2, #68]
 233 000e 23F48073 		bic	r3, r3, #256
 234 0012 5364     		str	r3, [r2, #68]
 156:Core/Src/stm32f4xx_hal_msp.c **** 
 157:Core/Src/stm32f4xx_hal_msp.c ****     /**ADC1 GPIO Configuration
 158:Core/Src/stm32f4xx_hal_msp.c ****     PC0     ------> ADC1_IN10
 159:Core/Src/stm32f4xx_hal_msp.c ****     PC1     ------> ADC1_IN11
 160:Core/Src/stm32f4xx_hal_msp.c ****     PC2     ------> ADC1_IN12
 161:Core/Src/stm32f4xx_hal_msp.c ****     PC3     ------> ADC1_IN13
 162:Core/Src/stm32f4xx_hal_msp.c ****     PA0-WKUP     ------> ADC1_IN0
 163:Core/Src/stm32f4xx_hal_msp.c ****     PA1     ------> ADC1_IN1
 164:Core/Src/stm32f4xx_hal_msp.c ****     PA2     ------> ADC1_IN2
 165:Core/Src/stm32f4xx_hal_msp.c ****     PA3     ------> ADC1_IN3
 166:Core/Src/stm32f4xx_hal_msp.c ****     PA4     ------> ADC1_IN4
 167:Core/Src/stm32f4xx_hal_msp.c ****     PA5     ------> ADC1_IN5
 168:Core/Src/stm32f4xx_hal_msp.c ****     PA6     ------> ADC1_IN6
 169:Core/Src/stm32f4xx_hal_msp.c ****     PA7     ------> ADC1_IN7
 170:Core/Src/stm32f4xx_hal_msp.c ****     PC4     ------> ADC1_IN14
ARM GAS  C:\Users\zazz0\AppData\Local\Temp\ccasLcNg.s 			page 8


 171:Core/Src/stm32f4xx_hal_msp.c ****     PC5     ------> ADC1_IN15
 172:Core/Src/stm32f4xx_hal_msp.c ****     PB0     ------> ADC1_IN8
 173:Core/Src/stm32f4xx_hal_msp.c ****     PB1     ------> ADC1_IN9
 174:Core/Src/stm32f4xx_hal_msp.c ****     */
 175:Core/Src/stm32f4xx_hal_msp.c ****     HAL_GPIO_DeInit(GPIOC, GPIO_PIN_0|GPIO_PIN_1|GPIO_PIN_2|GPIO_PIN_3
 235              		.loc 1 175 0
 236 0014 3F21     		movs	r1, #63
 237 0016 0848     		ldr	r0, .L13+8
 238              	.LVL6:
 239 0018 FFF7FEFF 		bl	HAL_GPIO_DeInit
 240              	.LVL7:
 176:Core/Src/stm32f4xx_hal_msp.c ****                           |GPIO_PIN_4|GPIO_PIN_5);
 177:Core/Src/stm32f4xx_hal_msp.c **** 
 178:Core/Src/stm32f4xx_hal_msp.c ****     HAL_GPIO_DeInit(GPIOA, GPIO_PIN_0|GPIO_PIN_1|GPIO_PIN_2|GPIO_PIN_3
 241              		.loc 1 178 0
 242 001c FF21     		movs	r1, #255
 243 001e 0748     		ldr	r0, .L13+12
 244 0020 FFF7FEFF 		bl	HAL_GPIO_DeInit
 245              	.LVL8:
 179:Core/Src/stm32f4xx_hal_msp.c ****                           |GPIO_PIN_4|GPIO_PIN_5|GPIO_PIN_6|GPIO_PIN_7);
 180:Core/Src/stm32f4xx_hal_msp.c **** 
 181:Core/Src/stm32f4xx_hal_msp.c ****     HAL_GPIO_DeInit(GPIOB, GPIO_PIN_0|GPIO_PIN_1);
 246              		.loc 1 181 0
 247 0024 0321     		movs	r1, #3
 248 0026 0648     		ldr	r0, .L13+16
 249 0028 FFF7FEFF 		bl	HAL_GPIO_DeInit
 250              	.LVL9:
 251              	.L10:
 252 002c 08BD     		pop	{r3, pc}
 253              	.L14:
 254 002e 00BF     		.align	2
 255              	.L13:
 256 0030 00200140 		.word	1073815552
 257 0034 00380240 		.word	1073887232
 258 0038 00080240 		.word	1073874944
 259 003c 00000240 		.word	1073872896
 260 0040 00040240 		.word	1073873920
 261              		.cfi_endproc
 262              	.LFE237:
 264              		.section	.text.HAL_UART_MspInit,"ax",%progbits
 265              		.align	2
 266              		.global	HAL_UART_MspInit
 267              		.thumb
 268              		.thumb_func
 270              	HAL_UART_MspInit:
 271              	.LFB238:
 182:Core/Src/stm32f4xx_hal_msp.c **** 
 183:Core/Src/stm32f4xx_hal_msp.c ****   /* USER CODE BEGIN ADC1_MspDeInit 1 */
 184:Core/Src/stm32f4xx_hal_msp.c **** 
 185:Core/Src/stm32f4xx_hal_msp.c ****   /* USER CODE END ADC1_MspDeInit 1 */
 186:Core/Src/stm32f4xx_hal_msp.c ****   }
 187:Core/Src/stm32f4xx_hal_msp.c **** 
 188:Core/Src/stm32f4xx_hal_msp.c **** }
 189:Core/Src/stm32f4xx_hal_msp.c **** 
 190:Core/Src/stm32f4xx_hal_msp.c **** /**
 191:Core/Src/stm32f4xx_hal_msp.c **** * @brief UART MSP Initialization
 192:Core/Src/stm32f4xx_hal_msp.c **** * This function configures the hardware resources used in this example
ARM GAS  C:\Users\zazz0\AppData\Local\Temp\ccasLcNg.s 			page 9


 193:Core/Src/stm32f4xx_hal_msp.c **** * @param huart: UART handle pointer
 194:Core/Src/stm32f4xx_hal_msp.c **** * @retval None
 195:Core/Src/stm32f4xx_hal_msp.c **** */
 196:Core/Src/stm32f4xx_hal_msp.c **** void HAL_UART_MspInit(UART_HandleTypeDef* huart)
 197:Core/Src/stm32f4xx_hal_msp.c **** {
 272              		.loc 1 197 0
 273              		.cfi_startproc
 274              		@ args = 0, pretend = 0, frame = 40
 275              		@ frame_needed = 0, uses_anonymous_args = 0
 276              	.LVL10:
 277 0000 00B5     		push	{lr}
 278              	.LCFI6:
 279              		.cfi_def_cfa_offset 4
 280              		.cfi_offset 14, -4
 281 0002 8BB0     		sub	sp, sp, #44
 282              	.LCFI7:
 283              		.cfi_def_cfa_offset 48
 198:Core/Src/stm32f4xx_hal_msp.c ****   GPIO_InitTypeDef GPIO_InitStruct = {0};
 284              		.loc 1 198 0
 285 0004 0023     		movs	r3, #0
 286 0006 0593     		str	r3, [sp, #20]
 287 0008 0693     		str	r3, [sp, #24]
 288 000a 0793     		str	r3, [sp, #28]
 289 000c 0893     		str	r3, [sp, #32]
 290 000e 0993     		str	r3, [sp, #36]
 199:Core/Src/stm32f4xx_hal_msp.c ****   if(huart->Instance==UART4)
 291              		.loc 1 199 0
 292 0010 0368     		ldr	r3, [r0]
 293 0012 284A     		ldr	r2, .L19
 294 0014 9342     		cmp	r3, r2
 295 0016 23D1     		bne	.L16
 296              	.LBB8:
 200:Core/Src/stm32f4xx_hal_msp.c ****   {
 201:Core/Src/stm32f4xx_hal_msp.c ****   /* USER CODE BEGIN UART4_MspInit 0 */
 202:Core/Src/stm32f4xx_hal_msp.c **** 
 203:Core/Src/stm32f4xx_hal_msp.c ****   /* USER CODE END UART4_MspInit 0 */
 204:Core/Src/stm32f4xx_hal_msp.c ****     /* Peripheral clock enable */
 205:Core/Src/stm32f4xx_hal_msp.c ****     __HAL_RCC_UART4_CLK_ENABLE();
 297              		.loc 1 205 0
 298 0018 0021     		movs	r1, #0
 299 001a 0191     		str	r1, [sp, #4]
 300 001c 264B     		ldr	r3, .L19+4
 301 001e 1A6C     		ldr	r2, [r3, #64]
 302 0020 42F40022 		orr	r2, r2, #524288
 303 0024 1A64     		str	r2, [r3, #64]
 304 0026 1A6C     		ldr	r2, [r3, #64]
 305 0028 02F40022 		and	r2, r2, #524288
 306 002c 0192     		str	r2, [sp, #4]
 307 002e 019A     		ldr	r2, [sp, #4]
 308              	.LBE8:
 309              	.LBB9:
 206:Core/Src/stm32f4xx_hal_msp.c **** 
 207:Core/Src/stm32f4xx_hal_msp.c ****     __HAL_RCC_GPIOC_CLK_ENABLE();
 310              		.loc 1 207 0
 311 0030 0291     		str	r1, [sp, #8]
 312 0032 1A6B     		ldr	r2, [r3, #48]
 313 0034 42F00402 		orr	r2, r2, #4
ARM GAS  C:\Users\zazz0\AppData\Local\Temp\ccasLcNg.s 			page 10


 314 0038 1A63     		str	r2, [r3, #48]
 315 003a 1B6B     		ldr	r3, [r3, #48]
 316 003c 03F00403 		and	r3, r3, #4
 317 0040 0293     		str	r3, [sp, #8]
 318 0042 029B     		ldr	r3, [sp, #8]
 319              	.LBE9:
 208:Core/Src/stm32f4xx_hal_msp.c ****     /**UART4 GPIO Configuration
 209:Core/Src/stm32f4xx_hal_msp.c ****     PC10     ------> UART4_TX
 210:Core/Src/stm32f4xx_hal_msp.c ****     PC11     ------> UART4_RX
 211:Core/Src/stm32f4xx_hal_msp.c ****     */
 212:Core/Src/stm32f4xx_hal_msp.c ****     GPIO_InitStruct.Pin = GPIO_PIN_10|GPIO_PIN_11;
 320              		.loc 1 212 0
 321 0044 4FF44063 		mov	r3, #3072
 322 0048 0593     		str	r3, [sp, #20]
 213:Core/Src/stm32f4xx_hal_msp.c ****     GPIO_InitStruct.Mode = GPIO_MODE_AF_PP;
 323              		.loc 1 213 0
 324 004a 0223     		movs	r3, #2
 325 004c 0693     		str	r3, [sp, #24]
 214:Core/Src/stm32f4xx_hal_msp.c ****     GPIO_InitStruct.Pull = GPIO_NOPULL;
 215:Core/Src/stm32f4xx_hal_msp.c ****     GPIO_InitStruct.Speed = GPIO_SPEED_FREQ_VERY_HIGH;
 326              		.loc 1 215 0
 327 004e 0323     		movs	r3, #3
 328 0050 0893     		str	r3, [sp, #32]
 216:Core/Src/stm32f4xx_hal_msp.c ****     GPIO_InitStruct.Alternate = GPIO_AF8_UART4;
 329              		.loc 1 216 0
 330 0052 0823     		movs	r3, #8
 331 0054 0993     		str	r3, [sp, #36]
 217:Core/Src/stm32f4xx_hal_msp.c ****     HAL_GPIO_Init(GPIOC, &GPIO_InitStruct);
 332              		.loc 1 217 0
 333 0056 05A9     		add	r1, sp, #20
 334 0058 1848     		ldr	r0, .L19+8
 335              	.LVL11:
 336 005a FFF7FEFF 		bl	HAL_GPIO_Init
 337              	.LVL12:
 338 005e 25E0     		b	.L15
 339              	.LVL13:
 340              	.L16:
 218:Core/Src/stm32f4xx_hal_msp.c **** 
 219:Core/Src/stm32f4xx_hal_msp.c ****   /* USER CODE BEGIN UART4_MspInit 1 */
 220:Core/Src/stm32f4xx_hal_msp.c **** 
 221:Core/Src/stm32f4xx_hal_msp.c ****   /* USER CODE END UART4_MspInit 1 */
 222:Core/Src/stm32f4xx_hal_msp.c ****   }
 223:Core/Src/stm32f4xx_hal_msp.c ****   else if(huart->Instance==USART1)
 341              		.loc 1 223 0
 342 0060 174A     		ldr	r2, .L19+12
 343 0062 9342     		cmp	r3, r2
 344 0064 22D1     		bne	.L15
 345              	.LBB10:
 224:Core/Src/stm32f4xx_hal_msp.c ****   {
 225:Core/Src/stm32f4xx_hal_msp.c ****   /* USER CODE BEGIN USART1_MspInit 0 */
 226:Core/Src/stm32f4xx_hal_msp.c **** 
 227:Core/Src/stm32f4xx_hal_msp.c ****   /* USER CODE END USART1_MspInit 0 */
 228:Core/Src/stm32f4xx_hal_msp.c ****     /* Peripheral clock enable */
 229:Core/Src/stm32f4xx_hal_msp.c ****     __HAL_RCC_USART1_CLK_ENABLE();
 346              		.loc 1 229 0
 347 0066 0021     		movs	r1, #0
 348 0068 0391     		str	r1, [sp, #12]
ARM GAS  C:\Users\zazz0\AppData\Local\Temp\ccasLcNg.s 			page 11


 349 006a 134B     		ldr	r3, .L19+4
 350 006c 5A6C     		ldr	r2, [r3, #68]
 351 006e 42F01002 		orr	r2, r2, #16
 352 0072 5A64     		str	r2, [r3, #68]
 353 0074 5A6C     		ldr	r2, [r3, #68]
 354 0076 02F01002 		and	r2, r2, #16
 355 007a 0392     		str	r2, [sp, #12]
 356 007c 039A     		ldr	r2, [sp, #12]
 357              	.LBE10:
 358              	.LBB11:
 230:Core/Src/stm32f4xx_hal_msp.c **** 
 231:Core/Src/stm32f4xx_hal_msp.c ****     __HAL_RCC_GPIOA_CLK_ENABLE();
 359              		.loc 1 231 0
 360 007e 0491     		str	r1, [sp, #16]
 361 0080 1A6B     		ldr	r2, [r3, #48]
 362 0082 42F00102 		orr	r2, r2, #1
 363 0086 1A63     		str	r2, [r3, #48]
 364 0088 1B6B     		ldr	r3, [r3, #48]
 365 008a 03F00103 		and	r3, r3, #1
 366 008e 0493     		str	r3, [sp, #16]
 367 0090 049B     		ldr	r3, [sp, #16]
 368              	.LBE11:
 232:Core/Src/stm32f4xx_hal_msp.c ****     /**USART1 GPIO Configuration
 233:Core/Src/stm32f4xx_hal_msp.c ****     PA9     ------> USART1_TX
 234:Core/Src/stm32f4xx_hal_msp.c ****     PA10     ------> USART1_RX
 235:Core/Src/stm32f4xx_hal_msp.c ****     */
 236:Core/Src/stm32f4xx_hal_msp.c ****     GPIO_InitStruct.Pin = GPIO_PIN_9|GPIO_PIN_10;
 369              		.loc 1 236 0
 370 0092 4FF4C063 		mov	r3, #1536
 371 0096 0593     		str	r3, [sp, #20]
 237:Core/Src/stm32f4xx_hal_msp.c ****     GPIO_InitStruct.Mode = GPIO_MODE_AF_PP;
 372              		.loc 1 237 0
 373 0098 0223     		movs	r3, #2
 374 009a 0693     		str	r3, [sp, #24]
 238:Core/Src/stm32f4xx_hal_msp.c ****     GPIO_InitStruct.Pull = GPIO_NOPULL;
 239:Core/Src/stm32f4xx_hal_msp.c ****     GPIO_InitStruct.Speed = GPIO_SPEED_FREQ_VERY_HIGH;
 375              		.loc 1 239 0
 376 009c 0323     		movs	r3, #3
 377 009e 0893     		str	r3, [sp, #32]
 240:Core/Src/stm32f4xx_hal_msp.c ****     GPIO_InitStruct.Alternate = GPIO_AF7_USART1;
 378              		.loc 1 240 0
 379 00a0 0723     		movs	r3, #7
 380 00a2 0993     		str	r3, [sp, #36]
 241:Core/Src/stm32f4xx_hal_msp.c ****     HAL_GPIO_Init(GPIOA, &GPIO_InitStruct);
 381              		.loc 1 241 0
 382 00a4 05A9     		add	r1, sp, #20
 383 00a6 0748     		ldr	r0, .L19+16
 384              	.LVL14:
 385 00a8 FFF7FEFF 		bl	HAL_GPIO_Init
 386              	.LVL15:
 387              	.L15:
 242:Core/Src/stm32f4xx_hal_msp.c **** 
 243:Core/Src/stm32f4xx_hal_msp.c ****   /* USER CODE BEGIN USART1_MspInit 1 */
 244:Core/Src/stm32f4xx_hal_msp.c **** 
 245:Core/Src/stm32f4xx_hal_msp.c ****   /* USER CODE END USART1_MspInit 1 */
 246:Core/Src/stm32f4xx_hal_msp.c ****   }
 247:Core/Src/stm32f4xx_hal_msp.c **** 
ARM GAS  C:\Users\zazz0\AppData\Local\Temp\ccasLcNg.s 			page 12


 248:Core/Src/stm32f4xx_hal_msp.c **** }
 388              		.loc 1 248 0
 389 00ac 0BB0     		add	sp, sp, #44
 390              	.LCFI8:
 391              		.cfi_def_cfa_offset 4
 392              		@ sp needed
 393 00ae 5DF804FB 		ldr	pc, [sp], #4
 394              	.L20:
 395 00b2 00BF     		.align	2
 396              	.L19:
 397 00b4 004C0040 		.word	1073761280
 398 00b8 00380240 		.word	1073887232
 399 00bc 00080240 		.word	1073874944
 400 00c0 00100140 		.word	1073811456
 401 00c4 00000240 		.word	1073872896
 402              		.cfi_endproc
 403              	.LFE238:
 405              		.section	.text.HAL_UART_MspDeInit,"ax",%progbits
 406              		.align	2
 407              		.global	HAL_UART_MspDeInit
 408              		.thumb
 409              		.thumb_func
 411              	HAL_UART_MspDeInit:
 412              	.LFB239:
 249:Core/Src/stm32f4xx_hal_msp.c **** 
 250:Core/Src/stm32f4xx_hal_msp.c **** /**
 251:Core/Src/stm32f4xx_hal_msp.c **** * @brief UART MSP De-Initialization
 252:Core/Src/stm32f4xx_hal_msp.c **** * This function freeze the hardware resources used in this example
 253:Core/Src/stm32f4xx_hal_msp.c **** * @param huart: UART handle pointer
 254:Core/Src/stm32f4xx_hal_msp.c **** * @retval None
 255:Core/Src/stm32f4xx_hal_msp.c **** */
 256:Core/Src/stm32f4xx_hal_msp.c **** void HAL_UART_MspDeInit(UART_HandleTypeDef* huart)
 257:Core/Src/stm32f4xx_hal_msp.c **** {
 413              		.loc 1 257 0
 414              		.cfi_startproc
 415              		@ args = 0, pretend = 0, frame = 0
 416              		@ frame_needed = 0, uses_anonymous_args = 0
 417              	.LVL16:
 418 0000 08B5     		push	{r3, lr}
 419              	.LCFI9:
 420              		.cfi_def_cfa_offset 8
 421              		.cfi_offset 3, -8
 422              		.cfi_offset 14, -4
 258:Core/Src/stm32f4xx_hal_msp.c ****   if(huart->Instance==UART4)
 423              		.loc 1 258 0
 424 0002 0368     		ldr	r3, [r0]
 425 0004 0E4A     		ldr	r2, .L25
 426 0006 9342     		cmp	r3, r2
 427 0008 0BD1     		bne	.L22
 259:Core/Src/stm32f4xx_hal_msp.c ****   {
 260:Core/Src/stm32f4xx_hal_msp.c ****   /* USER CODE BEGIN UART4_MspDeInit 0 */
 261:Core/Src/stm32f4xx_hal_msp.c **** 
 262:Core/Src/stm32f4xx_hal_msp.c ****   /* USER CODE END UART4_MspDeInit 0 */
 263:Core/Src/stm32f4xx_hal_msp.c ****     /* Peripheral clock disable */
 264:Core/Src/stm32f4xx_hal_msp.c ****     __HAL_RCC_UART4_CLK_DISABLE();
 428              		.loc 1 264 0
 429 000a 02F5F632 		add	r2, r2, #125952
ARM GAS  C:\Users\zazz0\AppData\Local\Temp\ccasLcNg.s 			page 13


 430 000e 136C     		ldr	r3, [r2, #64]
 431 0010 23F40023 		bic	r3, r3, #524288
 432 0014 1364     		str	r3, [r2, #64]
 265:Core/Src/stm32f4xx_hal_msp.c **** 
 266:Core/Src/stm32f4xx_hal_msp.c ****     /**UART4 GPIO Configuration
 267:Core/Src/stm32f4xx_hal_msp.c ****     PC10     ------> UART4_TX
 268:Core/Src/stm32f4xx_hal_msp.c ****     PC11     ------> UART4_RX
 269:Core/Src/stm32f4xx_hal_msp.c ****     */
 270:Core/Src/stm32f4xx_hal_msp.c ****     HAL_GPIO_DeInit(GPIOC, GPIO_PIN_10|GPIO_PIN_11);
 433              		.loc 1 270 0
 434 0016 4FF44061 		mov	r1, #3072
 435 001a 0A48     		ldr	r0, .L25+4
 436              	.LVL17:
 437 001c FFF7FEFF 		bl	HAL_GPIO_DeInit
 438              	.LVL18:
 439 0020 08BD     		pop	{r3, pc}
 440              	.LVL19:
 441              	.L22:
 271:Core/Src/stm32f4xx_hal_msp.c **** 
 272:Core/Src/stm32f4xx_hal_msp.c ****   /* USER CODE BEGIN UART4_MspDeInit 1 */
 273:Core/Src/stm32f4xx_hal_msp.c **** 
 274:Core/Src/stm32f4xx_hal_msp.c ****   /* USER CODE END UART4_MspDeInit 1 */
 275:Core/Src/stm32f4xx_hal_msp.c ****   }
 276:Core/Src/stm32f4xx_hal_msp.c ****   else if(huart->Instance==USART1)
 442              		.loc 1 276 0
 443 0022 094A     		ldr	r2, .L25+8
 444 0024 9342     		cmp	r3, r2
 445 0026 0AD1     		bne	.L21
 277:Core/Src/stm32f4xx_hal_msp.c ****   {
 278:Core/Src/stm32f4xx_hal_msp.c ****   /* USER CODE BEGIN USART1_MspDeInit 0 */
 279:Core/Src/stm32f4xx_hal_msp.c **** 
 280:Core/Src/stm32f4xx_hal_msp.c ****   /* USER CODE END USART1_MspDeInit 0 */
 281:Core/Src/stm32f4xx_hal_msp.c ****     /* Peripheral clock disable */
 282:Core/Src/stm32f4xx_hal_msp.c ****     __HAL_RCC_USART1_CLK_DISABLE();
 446              		.loc 1 282 0
 447 0028 02F59432 		add	r2, r2, #75776
 448 002c 536C     		ldr	r3, [r2, #68]
 449 002e 23F01003 		bic	r3, r3, #16
 450 0032 5364     		str	r3, [r2, #68]
 283:Core/Src/stm32f4xx_hal_msp.c **** 
 284:Core/Src/stm32f4xx_hal_msp.c ****     /**USART1 GPIO Configuration
 285:Core/Src/stm32f4xx_hal_msp.c ****     PA9     ------> USART1_TX
 286:Core/Src/stm32f4xx_hal_msp.c ****     PA10     ------> USART1_RX
 287:Core/Src/stm32f4xx_hal_msp.c ****     */
 288:Core/Src/stm32f4xx_hal_msp.c ****     HAL_GPIO_DeInit(GPIOA, GPIO_PIN_9|GPIO_PIN_10);
 451              		.loc 1 288 0
 452 0034 4FF4C061 		mov	r1, #1536
 453 0038 0448     		ldr	r0, .L25+12
 454              	.LVL20:
 455 003a FFF7FEFF 		bl	HAL_GPIO_DeInit
 456              	.LVL21:
 457              	.L21:
 458 003e 08BD     		pop	{r3, pc}
 459              	.L26:
 460              		.align	2
 461              	.L25:
 462 0040 004C0040 		.word	1073761280
ARM GAS  C:\Users\zazz0\AppData\Local\Temp\ccasLcNg.s 			page 14


 463 0044 00080240 		.word	1073874944
 464 0048 00100140 		.word	1073811456
 465 004c 00000240 		.word	1073872896
 466              		.cfi_endproc
 467              	.LFE239:
 469              		.text
 470              	.Letext0:
 471              		.file 2 "c:\\program files (x86)\\gnu tools arm embedded\\5.4 2016q3\\arm-none-eabi\\include\\mach
 472              		.file 3 "c:\\program files (x86)\\gnu tools arm embedded\\5.4 2016q3\\arm-none-eabi\\include\\sys\
 473              		.file 4 "Drivers/CMSIS/Device/ST/STM32F4xx/Include/stm32f407xx.h"
 474              		.file 5 "Drivers/CMSIS/Device/ST/STM32F4xx/Include/stm32f4xx.h"
 475              		.file 6 "Drivers/STM32F4xx_HAL_Driver/Inc/stm32f4xx_hal_def.h"
 476              		.file 7 "Drivers/STM32F4xx_HAL_Driver/Inc/stm32f4xx_hal_gpio.h"
 477              		.file 8 "Drivers/STM32F4xx_HAL_Driver/Inc/stm32f4xx_hal_dma.h"
 478              		.file 9 "Drivers/STM32F4xx_HAL_Driver/Inc/stm32f4xx_hal_adc.h"
 479              		.file 10 "Drivers/STM32F4xx_HAL_Driver/Inc/stm32f4xx_hal_uart.h"
 480              		.file 11 "Drivers/CMSIS/Include/core_cm4.h"
ARM GAS  C:\Users\zazz0\AppData\Local\Temp\ccasLcNg.s 			page 15

